; Function Attrs: mustprogress nofree norecurse nosync nounwind willreturn memory(read, inaccessiblemem: none) uwtable
define noundef zeroext i1 @_ZNK10open_spiel10algorithms10SearchNode12CompareFinalERKS1_(ptr noundef nonnull readonly align 8 captures(none) dereferenceable(80) %0, ptr noundef nonnull readonly align 8 captures(none) dereferenceable(80) %1) local_unnamed_addr #9 align 2 {
  %3 = getelementptr inbounds nuw i8, ptr %0, i64 32
  %4 = load ptr, ptr %3, align 8
  %5 = getelementptr inbounds nuw i8, ptr %0, i64 40
  %6 = load ptr, ptr %5, align 8
  %7 = icmp eq ptr %4, %6
  br i1 %7, label %14, label %8

8:                                                ; preds = %2
  %9 = getelementptr inbounds nuw i8, ptr %0, i64 16
  %10 = load i32, ptr %9, align 8
  %11 = sext i32 %10 to i64
  %12 = getelementptr inbounds double, ptr %4, i64 %11
  %13 = load double, ptr %12, align 8
  br label %14

14:                                               ; preds = %2, %8
  %15 = phi double [ %13, %8 ], [ 0.000000e+00, %2 ]
  %16 = getelementptr inbounds nuw i8, ptr %1, i64 32
  %17 = load ptr, ptr %16, align 8
  %18 = getelementptr inbounds nuw i8, ptr %1, i64 40
  %19 = load ptr, ptr %18, align 8
  %20 = icmp eq ptr %17, %19
  br i1 %20, label %27, label %21

21:                                               ; preds = %14
  %22 = getelementptr inbounds nuw i8, ptr %1, i64 16
  %23 = load i32, ptr %22, align 8
  %24 = sext i32 %23 to i64
  %25 = getelementptr inbounds double, ptr %17, i64 %24
  %26 = load double, ptr %25, align 8
  br label %27

27:                                               ; preds = %14, %21
  %28 = phi double [ %26, %21 ], [ 0.000000e+00, %14 ]
  %29 = fcmp une double %15, %28
  br i1 %29, label %30, label %32

30:                                               ; preds = %27
  %31 = fcmp olt double %15, %28
  br label %45

32:                                               ; preds = %27
  %33 = getelementptr inbounds nuw i8, ptr %0, i64 20
  %34 = load i32, ptr %33, align 4
  %35 = getelementptr inbounds nuw i8, ptr %1, i64 20
  %36 = load i32, ptr %35, align 4
  %.not = icmp eq i32 %34, %36
  br i1 %.not, label %39, label %37

37:                                               ; preds = %32
  %38 = icmp slt i32 %34, %36
  br label %45

39:                                               ; preds = %32
  %40 = getelementptr inbounds nuw i8, ptr %0, i64 24
  %41 = load double, ptr %40, align 8
  %42 = getelementptr inbounds nuw i8, ptr %1, i64 24
  %43 = load double, ptr %42, align 8
  %44 = fcmp olt double %41, %43
  br label %45

45:                                               ; preds = %39, %37, %30
  %.0 = phi i1 [ %31, %30 ], [ %38, %37 ], [ %44, %39 ]
  ret i1 %.0
}